; Function Attrs: nounwind uwtable
define void @Ga2_ManCollectNodes_rec(ptr noundef %0, ptr noundef %1, ptr noundef %2, i32 noundef %3) local_unnamed_addr #4 {
  %5 = load i64, ptr %1, align 4
  %6 = icmp sgt i64 %5, -1
  %7 = icmp ne i32 %3, 0
  %or.cond = or i1 %7, %6
  br i1 %or.cond, label %8, label %54

8:                                                ; preds = %4
  %9 = and i64 %5, 536870911
  %10 = sub nsw i64 0, %9
  %11 = getelementptr inbounds %struct.Gia_Obj_t_, ptr %1, i64 %10
  tail call void @Ga2_ManCollectNodes_rec(ptr noundef %0, ptr noundef nonnull %11, ptr noundef %2, i32 noundef 0)
  %12 = load i64, ptr %1, align 4
  %13 = lshr i64 %12, 32
  %14 = and i64 %13, 536870911
  %15 = sub nsw i64 0, %14
  %16 = getelementptr inbounds %struct.Gia_Obj_t_, ptr %1, i64 %15
  tail call void @Ga2_ManCollectNodes_rec(ptr noundef %0, ptr noundef nonnull %16, ptr noundef %2, i32 noundef 0)
  %17 = getelementptr i8, ptr %0, i64 32
  %.val = load ptr, ptr %17, align 8
  %18 = ptrtoint ptr %1 to i64
  %19 = ptrtoint ptr %.val to i64
  %20 = sub i64 %18, %19
  %21 = sdiv exact i64 %20, 12
  %22 = trunc i64 %21 to i32
  %23 = getelementptr inbounds nuw i8, ptr %2, i64 4
  %24 = load i32, ptr %23, align 4
  %25 = load i32, ptr %2, align 8
  %26 = icmp eq i32 %24, %25
  br i1 %26, label %27, label %.Vec_IntGrow.exit10_crit_edge.i

.Vec_IntGrow.exit10_crit_edge.i:                  ; preds = %8
  %.phi.trans.insert.i = getelementptr inbounds nuw i8, ptr %2, i64 8
  %.pre.i = load ptr, ptr %.phi.trans.insert.i, align 8
  br label %Vec_IntPush.exit

27:                                               ; preds = %8
  %28 = icmp slt i32 %24, 16
  br i1 %28, label %29, label %37

29:                                               ; preds = %27
  %30 = getelementptr inbounds nuw i8, ptr %2, i64 8
  %31 = load ptr, ptr %30, align 8
  %.not9.i.i = icmp eq ptr %31, null
  br i1 %.not9.i.i, label %34, label %32

32:                                               ; preds = %29
  %33 = tail call dereferenceable_or_null(64) ptr @realloc(ptr noundef nonnull %31, i64 noundef 64) #26
  br label %Vec_IntGrow.exit.i

34:                                               ; preds = %29
  %35 = tail call noalias dereferenceable_or_null(64) ptr @malloc(i64 noundef 64) #27
  br label %Vec_IntGrow.exit.i

Vec_IntGrow.exit.i:                               ; preds = %34, %32
  %36 = phi ptr [ %33, %32 ], [ %35, %34 ]
  store ptr %36, ptr %30, align 8
  store i32 16, ptr %2, align 8
  br label %Vec_IntPush.exit

37:                                               ; preds = %27
  %38 = shl nuw nsw i32 %24, 1
  %39 = getelementptr inbounds nuw i8, ptr %2, i64 8
  %40 = load ptr, ptr %39, align 8
  %.not9.i9.i = icmp eq ptr %40, null
  %41 = zext nneg i32 %38 to i64
  %42 = shl nuw nsw i64 %41, 2
  br i1 %.not9.i9.i, label %45, label %43

43:                                               ; preds = %37
  %44 = tail call ptr @realloc(ptr noundef nonnull %40, i64 noundef %42) #26
  br label %47

45:                                               ; preds = %37
  %46 = tail call noalias ptr @malloc(i64 noundef %42) #27
  br label %47

47:                                               ; preds = %45, %43
  %48 = phi ptr [ %44, %43 ], [ %46, %45 ]
  store ptr %48, ptr %39, align 8
  store i32 %38, ptr %2, align 8
  br label %Vec_IntPush.exit

Vec_IntPush.exit:                                 ; preds = %.Vec_IntGrow.exit10_crit_edge.i, %Vec_IntGrow.exit.i, %47
  %49 = phi ptr [ %.pre.i, %.Vec_IntGrow.exit10_crit_edge.i ], [ %48, %47 ], [ %36, %Vec_IntGrow.exit.i ]
  %50 = load i32, ptr %23, align 4
  %51 = add nsw i32 %50, 1
  store i32 %51, ptr %23, align 4
  %52 = sext i32 %50 to i64
  %53 = getelementptr inbounds i32, ptr %49, i64 %52
  store i32 %22, ptr %53, align 4
  br label %54

54:                                               ; preds = %4, %Vec_IntPush.exit
  ret void
}